target datalayout = "e-m:e-p270:32:32-p271:32:32-p272:64:64-i64:64-i128:128-f80:128-n8:16:32:64-S128"
target triple = "x86_64-pc-linux-gnu"

%struct.yyguts_t = type { ptr, ptr, ptr, i64, i64, ptr, i8, i32, i32, ptr, i32, i32, i32, i32, i32, ptr, i32, ptr, i32, i32, ptr, i32, i32 }
%struct.yy_buffer_state = type { ptr, ptr, ptr, i32, i32, i32, i32, i32, i32, i32, i32, i32 }

; Function Attrs: nounwind uwtable
define dso_local void @GUC_yyfree(ptr noundef %0, ptr noundef %1) #0 {
  %3 = alloca ptr, align 8
  %4 = alloca ptr, align 8
  %5 = alloca ptr, align 8
  store ptr %0, ptr %3, align 8
  store ptr %1, ptr %4, align 8
  call void @llvm.lifetime.start.p0(i64 8, ptr %5) #15
  %6 = load ptr, ptr %4, align 8
  store ptr %6, ptr %5, align 8
  %7 = load ptr, ptr %3, align 8
  call void @free(ptr noundef %7) #15
  call void @llvm.lifetime.end.p0(i64 8, ptr %5) #15
  ret void
}

; Function Attrs: nounwind uwtable
define dso_local void @GUC_yy_delete_buffer(ptr noundef %0, ptr noundef %1) #0 {
  %3 = alloca ptr, align 8
  %4 = alloca ptr, align 8
  %5 = alloca ptr, align 8
  %6 = alloca i32, align 4
  store ptr %0, ptr %3, align 8
  store ptr %1, ptr %4, align 8
  call void @llvm.lifetime.start.p0(i64 8, ptr %5) #15
  %7 = load ptr, ptr %4, align 8
  store ptr %7, ptr %5, align 8
  %8 = load ptr, ptr %3, align 8
  %9 = icmp ne ptr %8, null
  br i1 %9, label %11, label %10

10:                                               ; preds = %2
  store i32 1, ptr %6, align 4
  br label %51

11:                                               ; preds = %2
  %12 = load ptr, ptr %3, align 8
  %13 = load ptr, ptr %5, align 8
  %14 = getelementptr inbounds nuw %struct.yyguts_t, ptr %13, i32 0, i32 5
  %15 = load ptr, ptr %14, align 8
  %16 = icmp ne ptr %15, null
  br i1 %16, label %17, label %26

17:                                               ; preds = %11
  %18 = load ptr, ptr %5, align 8
  %19 = getelementptr inbounds nuw %struct.yyguts_t, ptr %18, i32 0, i32 5
  %20 = load ptr, ptr %19, align 8
  %21 = load ptr, ptr %5, align 8
  %22 = getelementptr inbounds nuw %struct.yyguts_t, ptr %21, i32 0, i32 3
  %23 = load i64, ptr %22, align 8
  %24 = getelementptr inbounds nuw ptr, ptr %20, i64 %23
  %25 = load ptr, ptr %24, align 8
  br label %27

26:                                               ; preds = %11
  br label %27

27:                                               ; preds = %26, %17
  %28 = phi ptr [ %25, %17 ], [ null, %26 ]
  %29 = icmp eq ptr %12, %28
  br i1 %29, label %30, label %38

30:                                               ; preds = %27
  %31 = load ptr, ptr %5, align 8
  %32 = getelementptr inbounds nuw %struct.yyguts_t, ptr %31, i32 0, i32 5
  %33 = load ptr, ptr %32, align 8
  %34 = load ptr, ptr %5, align 8
  %35 = getelementptr inbounds nuw %struct.yyguts_t, ptr %34, i32 0, i32 3
  %36 = load i64, ptr %35, align 8
  %37 = getelementptr inbounds nuw ptr, ptr %33, i64 %36
  store ptr null, ptr %37, align 8
  br label %38

38:                                               ; preds = %30, %27
  %39 = load ptr, ptr %3, align 8
  %40 = getelementptr inbounds nuw %struct.yy_buffer_state, ptr %39, i32 0, i32 5
  %41 = load i32, ptr %40, align 8
  %42 = icmp ne i32 %41, 0
  br i1 %42, label %43, label %48

43:                                               ; preds = %38
  %44 = load ptr, ptr %3, align 8
  %45 = getelementptr inbounds nuw %struct.yy_buffer_state, ptr %44, i32 0, i32 1
  %46 = load ptr, ptr %45, align 8
  %47 = load ptr, ptr %4, align 8
  call void @GUC_yyfree(ptr noundef %46, ptr noundef %47)
  br label %48

48:                                               ; preds = %43, %38
  %49 = load ptr, ptr %3, align 8
  %50 = load ptr, ptr %4, align 8
  call void @GUC_yyfree(ptr noundef %49, ptr noundef %50)
  store i32 0, ptr %6, align 4
  br label %51

51:                                               ; preds = %48, %10
  call void @llvm.lifetime.end.p0(i64 8, ptr %5) #15
  %52 = load i32, ptr %6, align 4
  switch i32 %52, label %54 [
    i32 0, label %53
    i32 1, label %53
  ]

53:                                               ; preds = %51, %51
  ret void

54:                                               ; preds = %51
  unreachable
}